(iserver
GameStore
p1
(dp2
S'players'
p3
(iserver
PlayerList
p4
(dp5
S'list'
p6
(lp7
(iserver
Player
p8
(dp9
S'password'
p10
S'bbb'
p11
sS'name'
p12
S'aaa'
p13
sS'email'
p14
S'ccc'
p15
sba(iserver
Player
p16
(dp17
g10
S'yyy'
p18
sg12
S'zzz'
p19
sg14
S'xxx'
p20
sbasbsS'db_name'
p21
S'sample_db.dat'
p22
sS'games'
p23
(iserver
GameList
p24
(dp25
g6
(lp26
(iserver
Game
p27
(dp28
S'status'
p29
I0
sS'whosTurn'
p30
g13
sS'letters'
p31
(lp32
V\u05e4
aV\u05db
aV\u05d6
aV\u05d3
aV\u05e9
aV\u05d8
aV\u05e0
aV\u05d4
aV\u05dc
aV\u05ea
aV\u05d2
aV\u05db
aV\u05d0
aV\u05e6
aV\u05e8
aV\u05d3
aV\u05d1
aV\u05e4
aV\u05d2
aV\u05db
aV\u05d2
aV\u05d5
aV\u05dc
aV\u05ea
aV\u05e2
asS'playerLetters'
p33
(lp34
sS'rivalLetters'
p35
(lp36
sS'player_id'
p37
g13
sS'rival_id'
p38
g19
sS'id'
p39
L3058706590L
sba(iserver
Game
p40
(dp41
g29
I0
sg30
g13
sg31
(lp42
V\u05e6
aV\u05e0
aV\u05e9
aV\u05e2
aV\u05e4
aV\u05e7
aV\u05db
aV\u05d8
aV\u05d8
aV\u05e8
aV\u05db
aV\u05d7
aV\u05d1
aV\u05d2
aV\u05db
aV\u05d6
aV\u05d2
aV\u05d3
aV\u05d3
aV\u05de
aV\u05d7
aV\u05d4
aV\u05de
aV\u05d0
aV\u05d6
asg33
(lp43
sg35
(lp44
sg37
g13
sg38
g19
sg39
L210527208L
sba(iserver
Game
p45
(dp46
g29
I0
sg30
g19
sg31
(lp47
V\u05ea
aV\u05d5
aV\u05e4
aV\u05d0
aV\u05e7
aV\u05e2
aV\u05e0
aV\u05e7
aV\u05e6
aV\u05dc
aV\u05ea
aV\u05e0
aV\u05d8
aV\u05e1
aV\u05d0
aV\u05d3
aV\u05e1
aV\u05d4
aV\u05e4
aV\u05dc
aV\u05d3
aV\u05d6
aV\u05e8
aV\u05d0
aV\u05d7
asg33
(lp48
sg35
(lp49
sg37
g13
sg38
g19
sg39
L2320603637L
sba(iserver
Game
p50
(dp51
g29
I0
sg30
g13
sg31
(lp52
V\u05db
aV\u05e0
aV\u05d6
aV\u05d1
aV\u05e0
aV\u05d3
aV\u05e2
aV\u05db
aV\u05db
aV\u05d1
aV\u05d2
aV\u05d7
aV\u05d2
aV\u05db
aV\u05e1
aV\u05e7
aV\u05d8
aV\u05d7
aV\u05d0
aV\u05e2
aV\u05dc
aV\u05db
aV\u05d4
aV\u05d4
aV\u05e2
asg33
(lp53
sg35
(lp54
sg37
g13
sg38
g19
sg39
L1546812016L
sba(iserver
Game
p55
(dp56
g29
I0
sg30
g13
sg31
(lp57
V\u05e9
aV\u05d1
aV\u05e7
aV\u05d5
aV\u05e9
aV\u05ea
aV\u05d5
aV\u05d2
aV\u05e0
aV\u05e7
aV\u05db
aV\u05d2
aV\u05e2
aV\u05e1
aV\u05e4
aV\u05d6
aV\u05e9
aV\u05db
aV\u05dc
aV\u05d7
aV\u05e0
aV\u05e9
aV\u05db
aV\u05dc
aV\u05e4
asg33
(lp58
sg35
(lp59
sg37
g13
sg38
g19
sg39
L2602551364L
sba(iserver
Game
p60
(dp61
g29
I0
sg30
g13
sg31
(lp62
V\u05e7
aV\u05ea
aV\u05d1
aV\u05dc
aV\u05d9
aV\u05d1
aV\u05dc
aV\u05dc
aV\u05d9
aV\u05db
aV\u05e7
aV\u05d6
aV\u05de
aV\u05d3
aV\u05d4
aV\u05d1
aV\u05e1
aV\u05d9
aV\u05de
aV\u05d2
aV\u05de
aV\u05e4
aV\u05d8
aV\u05e2
aV\u05d7
asg33
(lp63
sg35
(lp64
sg37
g13
sg38
g19
sg39
L76863243L
sbasbsb.