(iserver
GameStore
p1
(dp2
S'players'
p3
(iserver
PlayerList
p4
(dp5
S'list'
p6
(lp7
(iserver
Player
p8
(dp9
S'password'
p10
S'bbb'
p11
sS'name'
p12
S'aaa'
p13
sS'email'
p14
S'ccc'
p15
sba(iserver
Player
p16
(dp17
g10
S'yyy'
p18
sg12
S'zzz'
p19
sg14
S'xxx'
p20
sbasbsS'db_name'
p21
S'sample_db.dat'
p22
sS'games'
p23
(iserver
GameList
p24
(dp25
g6
(lp26
(iserver
Game
p27
(dp28
S'letterList'
p29
(lp30
I1
aI1
aI21
aI19
aI6
aI16
aI9
aI1
aI4
aI16
aI22
aI19
aI2
aI10
aI27
aI15
aI23
aI6
aI9
aI13
aI6
aI9
aI13
aI10
aI24
asS'aPlayer'
p31
g8
sS'bPlayer'
p32
g16
sS'bWords'
p33
(lp34
sS'aWords'
p35
(lp36
sS'id'
p37
L1792739079L
sba(iserver
Game
p38
(dp39
S'whosTurn'
p40
g19
sS'letters'
p41
(lp42
V\u05d8
aV\u05e4
aV\u05e9
aV\u05d9
aV\u05e6
aV\u05e9
aV\u05e1
aV\u05d6
aV\u05d6
aV\u05e4
aV\u05d4
aV\u05d4
aV\u05d0
aV\u05d0
aV\u05d6
aV\u05ea
aV\u05dc
aV\u05d6
aV\u05db
aV\u05db
aV\u05e8
aV\u05dc
aV\u05e7
aV\u05e2
aV\u05e1
asS'playerLetters'
p43
(lp44
I13
aI15
asS'rivalLetters'
p45
(lp46
sS'player_id'
p47
g13
sS'rival_id'
p48
g19
sg37
L1764368568L
sba(iserver
Game
p49
(dp50
g40
g13
sg41
(lp51
V\u05e7
aV\u05dc
aV\u05d0
aV\u05e2
aV\u05dc
aV\u05d0
aV\u05e0
aV\u05de
aV\u05db
aV\u05d6
aV\u05d2
aV\u05de
aV\u05d2
aV\u05d9
aV\u05d7
aV\u05dc
aV\u05d2
aV\u05db
aV\u05e8
aV\u05d2
aV\u05d5
aV\u05d9
aV\u05d0
aV\u05e0
aV\u05d0
asg43
(lp52
sg45
(lp53
sg47
g13
sg48
g19
sg37
L667029112L
sba(iserver
Game
p54
(dp55
g40
g13
sg41
(lp56
V\u05d9
aV\u05d2
aV\u05e1
aV\u05de
aV\u05d6
aV\u05d7
aV\u05e4
aV\u05d7
aV\u05e2
aV\u05d5
aV\u05d0
aV\u05d2
aV\u05de
aV\u05e7
aV\u05e8
aV\u05e9
aV\u05e8
aV\u05db
aV\u05d6
aV\u05e6
aV\u05d5
aV\u05de
aV\u05de
aV\u05d0
aV\u05d0
asg43
(lp57
sg45
(lp58
sg47
g13
sg48
g19
sg37
L4127644606L
sba(iserver
Game
p59
(dp60
g40
g13
sg41
(lp61
V\u05d0
aV\u05d5
aV\u05e4
aV\u05e0
aV\u05d2
aV\u05d0
aV\u05e7
aV\u05e2
aV\u05e2
aV\u05db
aV\u05d4
aV\u05e1
aV\u05e6
aV\u05d3
aV\u05e6
aV\u05e2
aV\u05e6
aV\u05d6
aV\u05ea
aV\u05ea
aV\u05e2
aV\u05dc
aV\u05e0
aV\u05db
aV\u05d5
asg43
(lp62
sg45
(lp63
sg47
g13
sg48
g19
sg37
L4101078363L
sba(iserver
Game
p64
(dp65
g40
g13
sg41
(lp66
V\u05d1
aV\u05e1
aV\u05db
aV\u05e0
aV\u05d5
aV\u05d2
aV\u05d2
aV\u05d1
aV\u05ea
aV\u05db
aV\u05d6
aV\u05e4
aV\u05d9
aV\u05de
aV\u05e4
aV\u05e2
aV\u05db
aV\u05ea
aV\u05d5
aV\u05d2
aV\u05d6
aV\u05e8
aV\u05d2
aV\u05d2
aV\u05ea
asg43
(lp67
sg45
(lp68
sg47
g13
sg48
g19
sg37
L1812309468L
sba(iserver
Game
p69
(dp70
g40
g13
sg41
(lp71
V\u05de
aV\u05d7
aV\u05d9
aV\u05d2
aV\u05e4
aV\u05d3
aV\u05e4
aV\u05db
aV\u05e2
aV\u05dc
aV\u05d0
aV\u05d1
aV\u05ea
aV\u05d0
aV\u05d8
aV\u05e6
aV\u05e0
aV\u05e2
aV\u05e8
aV\u05d4
aV\u05d9
aV\u05d5
aV\u05e6
aV\u05e0
aV\u05d1
asg43
(lp72
sg45
(lp73
sg47
g13
sg48
g19
sg37
L1718022702L
sba(iserver
Game
p74
(dp75
g40
g13
sg41
(lp76
V\u05d7
aV\u05dc
aV\u05d5
aV\u05d1
aV\u05e7
aV\u05d0
aV\u05d5
aV\u05d9
aV\u05e1
aV\u05d8
aV\u05e2
aV\u05e1
aV\u05e8
aV\u05d0
aV\u05e6
aV\u05e0
aV\u05d2
aV\u05d6
aV\u05d5
aV\u05ea
aV\u05d9
aV\u05e8
aV\u05d7
aV\u05de
aV\u05d9
asg43
(lp77
sg45
(lp78
sg47
g13
sg48
g19
sg37
L4094381816L
sba(iserver
Game
p79
(dp80
g40
g13
sg41
(lp81
V\u05de
aV\u05e6
aV\u05d6
aV\u05d9
aV\u05e1
aV\u05d8
aV\u05ea
aV\u05db
aV\u05e6
aV\u05e1
aV\u05e6
aV\u05d2
aV\u05e4
aV\u05e7
aV\u05d2
aV\u05e7
aV\u05d7
aV\u05e1
aV\u05d1
aV\u05d6
aV\u05d2
aV\u05d3
aV\u05d0
aV\u05d8
aV\u05d8
asg43
(lp82
sg45
(lp83
sg47
g13
sg48
g19
sg37
L3222800298L
sba(iserver
Game
p84
(dp85
g40
g13
sg41
(lp86
V\u05e8
aV\u05e9
aV\u05e0
aV\u05d9
aV\u05e2
aV\u05de
aV\u05e6
aV\u05d0
aV\u05d6
aV\u05d5
aV\u05d2
aV\u05e7
aV\u05e0
aV\u05e9
aV\u05d2
aV\u05d8
aV\u05e7
aV\u05e0
aV\u05d3
aV\u05dc
aV\u05d2
aV\u05d3
aV\u05d8
aV\u05dc
aV\u05d3
asg43
(lp87
sg45
(lp88
sg47
g13
sg48
g19
sg37
L3969781070L
sba(iserver
Game
p89
(dp90
g40
g13
sg41
(lp91
V\u05e8
aV\u05e9
aV\u05d3
aV\u05d0
aV\u05ea
aV\u05e8
aV\u05dc
aV\u05d5
aV\u05ea
aV\u05e1
aV\u05d6
aV\u05e2
aV\u05e7
aV\u05d1
aV\u05e1
aV\u05d5
aV\u05d9
aV\u05dc
aV\u05d1
aV\u05e0
aV\u05db
aV\u05db
aV\u05e8
aV\u05d6
aV\u05e2
asg43
(lp92
sg45
(lp93
sg47
g13
sg48
g19
sg37
L2675636588L
sba(iserver
Game
p94
(dp95
S'status'
p96
I0
sg40
g13
sg41
(lp97
V\u05e7
aV\u05e4
aV\u05d2
aV\u05d1
aV\u05e2
aV\u05d5
aV\u05d7
aV\u05d9
aV\u05d9
aV\u05d9
aV\u05d5
aV\u05e6
aV\u05d7
aV\u05e0
aV\u05d0
aV\u05de
aV\u05d4
aV\u05e0
aV\u05e7
aV\u05d6
aV\u05d6
aV\u05d6
aV\u05e0
aV\u05db
aV\u05d5
asg43
(lp98
sg45
(lp99
sg47
g13
sg48
g19
sg37
L1655502877L
sba(iserver
Game
p100
(dp101
g96
I0
sg40
g13
sg41
(lp102
V\u05e1
aV\u05e9
aV\u05e6
aV\u05d8
aV\u05d8
aV\u05e6
aV\u05d8
aV\u05d3
aV\u05e7
aV\u05e4
aV\u05e0
aV\u05e8
aV\u05e7
aV\u05e0
aV\u05e6
aV\u05d4
aV\u05e8
aV\u05d1
aV\u05d9
aV\u05e4
aV\u05ea
aV\u05d9
aV\u05d4
aV\u05e8
aV\u05d8
asg43
(lp103
sg45
(lp104
sg47
g13
sg48
g19
sg37
L2369327967L
sba(iserver
Game
p105
(dp106
g96
I0
sg40
g13
sg41
(lp107
V\u05d9
aV\u05d0
aV\u05d4
aV\u05e6
aV\u05e7
aV\u05e9
aV\u05e8
aV\u05e6
aV\u05e1
aV\u05e4
aV\u05d0
aV\u05e6
aV\u05e6
aV\u05d3
aV\u05e8
aV\u05d0
aV\u05d1
aV\u05d9
aV\u05e6
aV\u05d7
aV\u05d8
aV\u05e1
aV\u05d9
aV\u05d9
aV\u05de
asg43
(lp108
sg45
(lp109
sg47
g13
sg48
g19
sg37
L3898375812L
sba(iserver
Game
p110
(dp111
g96
I0
sg40
g13
sg41
(lp112
V\u05de
aV\u05d3
aV\u05d0
aV\u05e7
aV\u05db
aV\u05d9
aV\u05e9
aV\u05d9
aV\u05e7
aV\u05e4
aV\u05db
aV\u05e6
aV\u05e0
aV\u05d1
aV\u05d8
aV\u05de
aV\u05e7
aV\u05d4
aV\u05e9
aV\u05d0
aV\u05d3
aV\u05d3
aV\u05d1
aV\u05de
aV\u05d5
asg43
(lp113
sg45
(lp114
sg47
g13
sg48
g19
sg37
L2478229777L
sba(iserver
Game
p115
(dp116
g96
I0
sg40
g13
sg41
(lp117
V\u05d8
aV\u05d4
aV\u05db
aV\u05d0
aV\u05e4
aV\u05e8
aV\u05d3
aV\u05e4
aV\u05e8
aV\u05e1
aV\u05d8
aV\u05d2
aV\u05e7
aV\u05d2
aV\u05e0
aV\u05d3
aV\u05d9
aV\u05d3
aV\u05d0
aV\u05d7
aV\u05d8
aV\u05e8
aV\u05e2
aV\u05d6
aV\u05d6
asg43
(lp118
sg45
(lp119
sg47
g13
sg48
g19
sg37
L1905413349L
sba(iserver
Game
p120
(dp121
g96
I0
sg40
g13
sg41
(lp122
V\u05e2
aV\u05e2
aV\u05e1
aV\u05e7
aV\u05e1
aV\u05d5
aV\u05d1
aV\u05d8
aV\u05d4
aV\u05d4
aV\u05d5
aV\u05e8
aV\u05e4
aV\u05ea
aV\u05d7
aV\u05e6
aV\u05de
aV\u05d0
aV\u05ea
aV\u05d3
aV\u05e8
aV\u05d8
aV\u05d1
aV\u05d6
aV\u05e8
asg43
(lp123
sg45
(lp124
sg47
g13
sg48
g19
sg37
L1099041228L
sba(iserver
Game
p125
(dp126
g96
I1
sg40
g19
sg41
(lp127
V\u05d7
aV\u05e2
aV\u05d6
aV\u05d9
aV\u05d7
aV\u05d2
aV\u05ea
aV\u05e1
aV\u05e4
aV\u05e7
aV\u05e4
aV\u05d2
aV\u05d5
aV\u05d1
aV\u05e0
aV\u05e1
aV\u05d1
aV\u05db
aV\u05ea
aV\u05dc
aV\u05d1
aV\u05d1
aV\u05e7
aV\u05e8
aV\u05d6
asg43
(lp128
sg45
(lp129
sg47
g13
sg48
g19
sg37
L2948985512L
sba(iserver
Game
p130
(dp131
g96
I2
sg40
g13
sg41
(lp132
V\u05d9
aV\u05dc
aV\u05e1
aV\u05d4
aV\u05dc
aV\u05e4
aV\u05ea
aV\u05dc
aV\u05d9
aV\u05dc
aV\u05e2
aV\u05e6
aV\u05d9
aV\u05e1
aV\u05e4
aV\u05d3
aV\u05e1
aV\u05de
aV\u05e9
aV\u05d6
aV\u05d7
aV\u05e8
aV\u05e4
aV\u05d9
aV\u05d5
asg43
(lp133
sg45
(lp134
sg47
g13
sg48
g19
sg37
L2160367588L
sba(iserver
Game
p135
(dp136
g96
I0
sg40
g19
sg41
(lp137
V\u05e1
aV\u05e9
aV\u05e7
aV\u05d5
aV\u05e8
aV\u05e2
aV\u05d6
aV\u05d7
aV\u05e8
aV\u05d9
aV\u05e2
aV\u05d1
aV\u05d6
aV\u05d9
aV\u05ea
aV\u05d6
aV\u05ea
aV\u05d0
aV\u05d8
aV\u05d1
aV\u05d7
aV\u05d8
aV\u05db
aV\u05d3
aV\u05e1
asg43
(lp138
I2
aI3
aI4
aI24
asg45
(lp139
sg47
g13
sg48
g19
sg37
L1731164050L
sba(iserver
Game
p140
(dp141
g96
I0
sg40
g19
sg41
(lp142
V\u05ea
aV\u05dc
aV\u05db
aV\u05e8
aV\u05e1
aV\u05e7
aV\u05d8
aV\u05d4
aV\u05e2
aV\u05d3
aV\u05e4
aV\u05d4
aV\u05e6
aV\u05e6
aV\u05db
aV\u05d5
aV\u05e6
aV\u05e0
aV\u05e0
aV\u05e9
aV\u05e6
aV\u05e1
aV\u05d9
aV\u05e4
aV\u05dc
asg43
(lp143
I5
aI23
aI7
asg45
(lp144
sg47
g13
sg48
g19
sg37
L3987602130L
sba(iserver
Game
p145
(dp146
g96
I0
sg40
g19
sg41
(lp147
V\u05d2
aV\u05e2
aV\u05e0
aV\u05e7
aV\u05e4
aV\u05d7
aV\u05dc
aV\u05e4
aV\u05e1
aV\u05de
aV\u05e1
aV\u05d3
aV\u05e6
aV\u05d2
aV\u05de
aV\u05e0
aV\u05dc
aV\u05d0
aV\u05d9
aV\u05d7
aV\u05dc
aV\u05e2
aV\u05d8
aV\u05e0
aV\u05d2
asg43
(lp148
I19
aI13
asg45
(lp149
sg47
g13
sg48
g19
sg37
L3540148067L
sbasbsb.